libgportugol.so.0 libgportugol0 #MINVER#
* Build-Depends-Package: libgportugol-dev
 _Z14sigPipeHandleri@Base 0
 _ZN10GPTDisplay10showErrorsEv@Base 0
 _ZN10GPTDisplay11addFileNameERKNSt7__cxx1112basic_stringIcSt11char_traitsIcESaIcEEE@Base 0
 _ZN10GPTDisplay11showMessageERNSt7__cxx1118basic_stringstreamIcSt11char_traitsIcESaIcEEE@Base 0
 _ZN10GPTDisplay11stopOnErrorEb@Base 0
 _ZN10GPTDisplay11totalErrorsEv@Base 0
 _ZN10GPTDisplay13getFirstErrorEv@Base 0
 _ZN10GPTDisplay14getCurrentFileB5cxx11Ev@Base 0
 _ZN10GPTDisplay14setCurrentFileERKNSt7__cxx1112basic_stringIcSt11char_traitsIcESaIcEEE@Base 0
 _ZN10GPTDisplay3addERKNSt7__cxx1112basic_stringIcSt11char_traitsIcESaIcEEEi@Base 0
 _ZN10GPTDisplay4selfEv@Base 0
 _ZN10GPTDisplay5_selfE@Base 0
 _ZN10GPTDisplay5clearEv@Base 0
 _ZN10GPTDisplay5toOEMERKNSt7__cxx1112basic_stringIcSt11char_traitsIcESaIcEEE@Base 0
 _ZN10GPTDisplay6addTipERKNSt7__cxx1112basic_stringIcSt11char_traitsIcESaIcEEEii@Base 0
 _ZN10GPTDisplay7showTipERNS_8ErrorMsgE@Base 0
 _ZN10GPTDisplay8hasErrorEv@Base 0
 _ZN10GPTDisplay8showTipsEb@Base 0
 _ZN10GPTDisplay8toLatin1ERKNSt7__cxx1112basic_stringIcSt11char_traitsIcESaIcEEE@Base 0
 _ZN10GPTDisplay9showErrorERKNSt7__cxx1112basic_stringIcSt11char_traitsIcESaIcEEE@Base 0
 _ZN10GPTDisplay9showErrorERNS_8ErrorMsgE@Base 0
 _ZN10GPTDisplay9showErrorERNSt7__cxx1118basic_stringstreamIcSt11char_traitsIcESaIcEEE@Base 0
 _ZN10GPTDisplayC1Ev@Base 0
 _ZN10GPTDisplayC2Ev@Base 0
 _ZN10GPTDisplayD1Ev@Base 0
 _ZN10GPTDisplayD2Ev@Base 0
 _ZN10SymbolType10dimensionsB5cxx11Ev@Base 0
 _ZN10SymbolType12setPrimitiveEb@Base 0
 _ZN10SymbolType13setDimensionsERKNSt7__cxx114listIiSaIiEEE@Base 0
 _ZN10SymbolType16setPrimitiveTypeEi@Base 0
 _ZN10SymbolTypeC1Ei@Base 0
 _ZN10SymbolTypeC1Ev@Base 0
 _ZN10SymbolTypeC2Ei@Base 0
 _ZN10SymbolTypeC2Ev@Base 0
 _ZN11PortugolAST10getEndLineEv@Base 0
 _ZN11PortugolAST10initializeEN5antlr13TokenRefCountINS0_5TokenEEE@Base 0
 _ZN11PortugolAST10setEndLineEi@Base 0
 _ZN11PortugolAST7factoryEv@Base 0
 _ZN11PortugolAST7getLineEv@Base 0
 _ZN11PortugolAST7setLineEi@Base 0
 _ZN11PortugolAST9TYPE_NAMEE@Base 0
 _ZN11PortugolASTC1EN5antlr13TokenRefCountINS0_5TokenEEE@Base 0
 _ZN11PortugolASTC1ERKN5antlr9CommonASTE@Base 0
 _ZN11PortugolASTC1ERKS_@Base 0
 _ZN11PortugolASTC1Ev@Base 0
 _ZN11PortugolASTC2EN5antlr13TokenRefCountINS0_5TokenEEE@Base 0
 _ZN11PortugolASTC2ERKN5antlr9CommonASTE@Base 0
 _ZN11PortugolASTC2ERKS_@Base 0
 _ZN11PortugolASTC2Ev@Base 0
 _ZN11PortugolASTD0Ev@Base 0
 _ZN11PortugolASTD1Ev@Base 0
 _ZN11PortugolASTD2Ev@Base 0
 _ZN11SymbolTable10declareVarERKNSt7__cxx1112basic_stringIcSt11char_traitsIcESaIcEEES7_ii@Base 0
 _ZN11SymbolTable10declareVarERKNSt7__cxx1112basic_stringIcSt11char_traitsIcESaIcEEES7_iiRKNS0_4listIiSaIiEEE@Base 0
 _ZN11SymbolTable10getSymbolsERKNSt7__cxx1112basic_stringIcSt11char_traitsIcESaIcEEE@Base 0
 _ZN11SymbolTable11GlobalScopeB5cxx11E@Base 0
 _ZN11SymbolTable12insertSymbolER6SymbolRKNSt7__cxx1112basic_stringIcSt11char_traitsIcESaIcEEE@Base 0
 _ZN11SymbolTable13registrarLeiaEv@Base 0
 _ZN11SymbolTable16registrarImprimaEv@Base 0
 _ZN11SymbolTable9getSymbolERKNSt7__cxx1112basic_stringIcSt11char_traitsIcESaIcEEES7_b@Base 0
 _ZN11SymbolTableC1Ev@Base 0
 _ZN11SymbolTableC2Ev@Base 0
 _ZN11SymbolTableD1Ev@Base 0
 _ZN11SymbolTableD2Ev@Base 0
 _ZN12SemanticEval10declareVarEiN5antlr11ASTRefCountI11PortugolASTEE@Base 0
 _ZN12SemanticEval10declareVarEiNSt7__cxx114listIiSaIiEEEN5antlr11ASTRefCountI11PortugolASTEE@Base 0
 _ZN12SemanticEval11declareVarsERSt4pairIS0_IiNSt7__cxx114listIiSaIiEEEENS2_IN5antlr11ASTRefCountI11PortugolASTEESaIS9_EEEE@Base 0
 _ZN12SemanticEval11declareVarsERSt4pairIiNSt7__cxx114listIN5antlr11ASTRefCountI11PortugolASTEESaIS6_EEEE@Base 0
 _ZN12SemanticEval12evaluateExprER15ExpressionValueN5antlr11ASTRefCountI11PortugolASTEE@Base 0
 _ZN12SemanticEval12evaluateExprER15ExpressionValueS1_N5antlr11ASTRefCountI11PortugolASTEE@Base 0
 _ZN12SemanticEval13evaluateFCallEN5antlr11ASTRefCountI11PortugolASTEERNSt7__cxx114listI15ExpressionValueSaIS6_EEE@Base 0
 _ZN12SemanticEval13evaluatePassoEiRKNSt7__cxx1112basic_stringIcSt11char_traitsIcESaIcEEE@Base 0
 _ZN12SemanticEval14evaluateLValueEN5antlr11ASTRefCountI11PortugolASTEERNSt7__cxx114listI15ExpressionValueSaIS6_EEE@Base 0
 _ZN12SemanticEval14getSymbolTableEv@Base 0
 _ZN12SemanticEval15declareFunctionER6Funcao@Base 0
 _ZN12SemanticEval15setCurrentScopeERKNSt7__cxx1112basic_stringIcSt11char_traitsIcESaIcEEE@Base 0
 _ZN12SemanticEval16evaluateNumTypesER15ExpressionValueS1_@Base 0
 _ZN12SemanticEval16evaluateParaExprER15ExpressionValueiRKNSt7__cxx1112basic_stringIcSt11char_traitsIcESaIcEEE@Base 0
 _ZN12SemanticEval17evaluateReturnCmdER15ExpressionValuei@Base 0
 _ZN12SemanticEval19evaluateAttributionER15ExpressionValueS1_i@Base 0
 _ZN12SemanticEval19evaluateBooleanExprER15ExpressionValuei@Base 0
 _ZN12SemanticEval25evalVariableRedeclarationERKNSt7__cxx1112basic_stringIcSt11char_traitsIcESaIcEEEN5antlr11ASTRefCountI11PortugolASTEE@Base 0
 _ZN12SemanticEvalC1ER11SymbolTable@Base 0
 _ZN12SemanticEvalC2ER11SymbolTable@Base 0
 _ZN12production_tC1Ev@Base 0
 _ZN12production_tC2Ev@Base 0
 _ZN12production_tD1Ev@Base 0
 _ZN12production_tD2Ev@Base 0
 _ZN13PortugolLexer10mT_BIN_LITEb@Base 0
 _ZN13PortugolLexer10mT_BIT_NOTEb@Base 0
 _ZN13PortugolLexer10mT_BIT_XOUEb@Base 0
 _ZN13PortugolLexer10mT_HEX_LITEb@Base 0
 _ZN13PortugolLexer10mT_INT_LITEb@Base 0
 _ZN13PortugolLexer10mT_INVALIDEb@Base 0
 _ZN13PortugolLexer10mT_SEMICOLEb@Base 0
 _ZN13PortugolLexer11_tokenSet_0E@Base 0
 _ZN13PortugolLexer11_tokenSet_1E@Base 0
 _ZN13PortugolLexer11_tokenSet_2E@Base 0
 _ZN13PortugolLexer11_tokenSet_3E@Base 0
 _ZN13PortugolLexer11_tokenSet_4E@Base 0
 _ZN13PortugolLexer11mML_COMMENTEb@Base 0
 _ZN13PortugolLexer11mSL_COMMENTEb@Base 0
 _ZN13PortugolLexer11mT_MAIOR_EQEb@Base 0
 _ZN13PortugolLexer11mT_MENOR_EQEb@Base 0
 _ZN13PortugolLexer12initLiteralsEv@Base 0
 _ZN13PortugolLexer12mT_CARAC_LITEb@Base 0
 _ZN13PortugolLexer12mT_DIFERENTEEb@Base 0
 _ZN13PortugolLexer12mT_OCTAL_LITEb@Base 0
 _ZN13PortugolLexer13mT_STRING_LITEb@Base 0
 _ZN13PortugolLexer14mT_INTEGER_LITEb@Base 0
 _ZN13PortugolLexer16mT_IDENTIFICADOREb@Base 0
 _ZN13PortugolLexer17_tokenSet_0_data_E@Base 0
 _ZN13PortugolLexer17_tokenSet_1_data_E@Base 0
 _ZN13PortugolLexer17_tokenSet_2_data_E@Base 0
 _ZN13PortugolLexer17_tokenSet_3_data_E@Base 0
 _ZN13PortugolLexer17_tokenSet_4_data_E@Base 0
 _ZN13PortugolLexer18mT_LETTER_OR_DIGITEb@Base 0
 _ZN13PortugolLexer4mESCEb@Base 0
 _ZN13PortugolLexer6mT_DIVEb@Base 0
 _ZN13PortugolLexer6mT_MODEb@Base 0
 _ZN13PortugolLexer6mT_WS_Eb@Base 0
 _ZN13PortugolLexer7mT_ATTREb@Base 0
 _ZN13PortugolLexer7mT_MAISEb@Base 0
 _ZN13PortugolLexer7uponEOFEv@Base 0
 _ZN13PortugolLexer8mT_ABRECEb@Base 0
 _ZN13PortugolLexer8mT_ABREPEb@Base 0
 _ZN13PortugolLexer8mT_BIT_EEb@Base 0
 _ZN13PortugolLexer8mT_COLONEb@Base 0
 _ZN13PortugolLexer8mT_COMMAEb@Base 0
 _ZN13PortugolLexer8mT_DIGITEb@Base 0
 _ZN13PortugolLexer8mT_IGUALEb@Base 0
 _ZN13PortugolLexer8mT_MAIOREb@Base 0
 _ZN13PortugolLexer8mT_MENOREb@Base 0
 _ZN13PortugolLexer8mT_MENOSEb@Base 0
 _ZN13PortugolLexer9mT_BIT_OUEb@Base 0
 _ZN13PortugolLexer9mT_FECHACEb@Base 0
 _ZN13PortugolLexer9mT_FECHAPEb@Base 0
 _ZN13PortugolLexer9mT_ID_AUXEb@Base 0
 _ZN13PortugolLexer9mT_LETTEREb@Base 0
 _ZN13PortugolLexer9mT_MULTIPEb@Base 0
 _ZN13PortugolLexer9nextTokenEv@Base 0
 _ZN13PortugolLexerC1ERKN5antlr8RefCountINS0_15LexerInputStateEEE@Base 0
 _ZN13PortugolLexerC1ERN5antlr11InputBufferE@Base 0
 _ZN13PortugolLexerC1ERSi@Base 0
 _ZN13PortugolLexerC2ERKN5antlr8RefCountINS0_15LexerInputStateEEE@Base 0
 _ZN13PortugolLexerC2ERN5antlr11InputBufferE@Base 0
 _ZN13PortugolLexerC2ERSi@Base 0
 _ZN13PortugolLexerD0Ev@Base 0
 _ZN13PortugolLexerD1Ev@Base 0
 _ZN13PortugolLexerD2Ev@Base 0
 _ZN13X86SubProgram12declareLocalERKNSt7__cxx1112basic_stringIcSt11char_traitsIcESaIcEEEib@Base 0
 _ZN13X86SubProgram12declareParamERKNSt7__cxx1112basic_stringIcSt11char_traitsIcESaIcEEEii@Base 0
 _ZN13X86SubProgram19writeMatrixCopyCodeERKNSt7__cxx1112basic_stringIcSt11char_traitsIcESaIcEEEii@Base 0
 _ZN13X86SubProgram19writeMatrixInitCodeERKNSt7__cxx1112basic_stringIcSt11char_traitsIcESaIcEEEi@Base 0
 _ZN13X86SubProgram4initERKNSt7__cxx1112basic_stringIcSt11char_traitsIcESaIcEEEi@Base 0
 _ZN13X86SubProgram4nameB5cxx11Ev@Base 0
 _ZN13X86SubProgram6sourceB5cxx11Ev@Base 0
 _ZN13X86SubProgram9writeTEXTERKNSt7__cxx1112basic_stringIcSt11char_traitsIcESaIcEEE@Base 0
 _ZN13X86SubProgramC1ERKS_@Base 0
 _ZN13X86SubProgramC1Ev@Base 0
 _ZN13X86SubProgramC2ERKS_@Base 0
 _ZN13X86SubProgramC2Ev@Base 0
 _ZN13X86SubProgramD1Ev@Base 0
 _ZN13X86SubProgramD2Ev@Base 0
 _ZN14InterpreterDBG10receiveCmdEb@Base 0
 _ZN14InterpreterDBG13sendStackInfoERNSt7__cxx114listISt4pairINS0_12basic_stringIcSt11char_traitsIcESaIcEEES2_IS7_iEESaIS9_EEE@Base 0
 _ZN14InterpreterDBG13sendVariablesESt3mapINSt7__cxx1112basic_stringIcSt11char_traitsIcESaIcEEE8VariableSt4lessIS6_ESaISt4pairIKS6_S7_EEERNS1_4listISA_IS6_SA_IS6_iEESaISH_EEEb@Base 0
 _ZN14InterpreterDBG17matrixValuesNodesEjiRSt3mapINSt7__cxx1112basic_stringIcSt11char_traitsIcESaIcEEES6_St4lessIS6_ESaISt4pairIKS6_S6_EEERNS1_4listIiSaIiEEEiS6_@Base 0
 _ZN14InterpreterDBG19receiveIncomingDataB5cxx11Eb@Base 0
 _ZN14InterpreterDBG20processBreakpointCMDERNSt7__cxx1112basic_stringIcSt11char_traitsIcESaIcEEE@Base 0
 _ZN14InterpreterDBG4initENSt7__cxx1112basic_stringIcSt11char_traitsIcESaIcEEEi@Base 0
 _ZN14InterpreterDBG4selfEv@Base 0
 _ZN14InterpreterDBG6getCmdEv@Base 0
 _ZN14InterpreterDBG7breakOnERKNSt7__cxx1112basic_stringIcSt11char_traitsIcESaIcEEEi@Base 0
 _ZN14InterpreterDBG8sendDataERNSt7__cxx1118basic_stringstreamIcSt11char_traitsIcESaIcEEE@Base 0
 _ZN14InterpreterDBG8sendInfoEiR9VariablesRNSt7__cxx114listISt4pairINS2_12basic_stringIcSt11char_traitsIcESaIcEEES4_IS9_iEESaISB_EEE@Base 0
 _ZN14InterpreterDBG9checkDataEv@Base 0
 _ZN14InterpreterDBG9closeSockEv@Base 0
 _ZN14InterpreterDBG9singletonE@Base 0
 _ZN14InterpreterDBGC1Ev@Base 0
 _ZN14InterpreterDBGC2Ev@Base 0
 _ZN14PortugolParser10expr_bit_eEv@Base 0
 _ZN14PortugolParser10expr_igualEv@Base 0
 _ZN14PortugolParser10func_declsEv@Base 0
 _ZN14PortugolParser10stm_repitaEv@Base 0
 _ZN14PortugolParser10tokenNamesE@Base 0
 _ZN14PortugolParser10tp_prim_plEv@Base 0
 _ZN14PortugolParser11_tokenSet_0E@Base 0
 _ZN14PortugolParser11_tokenSet_1E@Base 0
 _ZN14PortugolParser11expr_bit_ouEv@Base 0
 _ZN14PortugolParser11expr_multipEv@Base 0
 _ZN14PortugolParser11expr_unarioEv@Base 0
 _ZN14PortugolParser11fffvar_declEv@Base 0
 _ZN14PortugolParser12expr_bit_xouEv@Base 0
 _ZN14PortugolParser12stm_enquantoEv@Base 0
 _ZN14PortugolParser13expr_elementoEv@Base 0
 _ZN14PortugolParser14var_decl_blockEv@Base 0
 _ZN14PortugolParser15expr_relacionalEv@Base 0
 _ZN14PortugolParser17_tokenSet_0_data_E@Base 0
 _ZN14PortugolParser17_tokenSet_1_data_E@Base 0
 _ZN14PortugolParser20declaracao_algoritmoEv@Base 0
 _ZN14PortugolParser20initializeASTFactoryERN5antlr10ASTFactoryE@Base 0
 _ZN14PortugolParser4exprEv@Base 0
 _ZN14PortugolParser5fargsEv@Base 0
 _ZN14PortugolParser5fcallEv@Base 0
 _ZN14PortugolParser5passoEv@Base 0
 _ZN14PortugolParser6expr_eEv@Base 0
 _ZN14PortugolParser6fparamEv@Base 0
 _ZN14PortugolParser6getASTEv@Base 0
 _ZN14PortugolParser6lvalueEv@Base 0
 _ZN14PortugolParser6stm_seEv@Base 0
 _ZN14PortugolParser7expr_adEv@Base 0
 _ZN14PortugolParser7fparamsEv@Base 0
 _ZN14PortugolParser7literalEv@Base 0
 _ZN14PortugolParser7rettypeEv@Base 0
 _ZN14PortugolParser7stm_retEv@Base 0
 _ZN14PortugolParser7tp_primEv@Base 0
 _ZN14PortugolParser8stm_attrEv@Base 0
 _ZN14PortugolParser8stm_listEv@Base 0
 _ZN14PortugolParser8stm_paraEv@Base 0
 _ZN14PortugolParser8var_declEv@Base 0
 _ZN14PortugolParser8var_moreEv@Base 0
 _ZN14PortugolParser9algoritmoEv@Base 0
 _ZN14PortugolParser9array_subEv@Base 0
 _ZN14PortugolParser9dimensoesEv@Base 0
 _ZN14PortugolParser9fvar_declEv@Base 0
 _ZN14PortugolParser9op_unarioEv@Base 0
 _ZN14PortugolParser9stm_blockEv@Base 0
 _ZN14PortugolParser9tp_matrizEv@Base 0
 _ZN14PortugolParserC1ERKN5antlr8RefCountINS0_16ParserInputStateEEE@Base 0
 _ZN14PortugolParserC1ERN5antlr11TokenBufferE@Base 0
 _ZN14PortugolParserC1ERN5antlr11TokenBufferEi@Base 0
 _ZN14PortugolParserC1ERN5antlr11TokenStreamE@Base 0
 _ZN14PortugolParserC1ERN5antlr11TokenStreamEi@Base 0
 _ZN14PortugolParserC2ERKN5antlr8RefCountINS0_16ParserInputStateEEE@Base 0
 _ZN14PortugolParserC2ERN5antlr11TokenBufferE@Base 0
 _ZN14PortugolParserC2ERN5antlr11TokenBufferEi@Base 0
 _ZN14PortugolParserC2ERN5antlr11TokenStreamE@Base 0
 _ZN14PortugolParserC2ERN5antlr11TokenStreamEi@Base 0
 _ZN14PortugolParserD0Ev@Base 0
 _ZN14PortugolParserD1Ev@Base 0
 _ZN14PortugolParserD2Ev@Base 0
 _ZN14SemanticWalker10func_protoEN5antlr11ASTRefCountI11PortugolASTEE@Base 0
 _ZN14SemanticWalker10stm_repitaEN5antlr11ASTRefCountI11PortugolASTEE@Base 0
 _ZN14SemanticWalker10tokenNamesE@Base 0
 _ZN14SemanticWalker11_tokenSet_0E@Base 0
 _ZN14SemanticWalker11_tokenSet_1E@Base 0
 _ZN14SemanticWalker11tipo_matrizB5cxx11EN5antlr11ASTRefCountI11PortugolASTEE@Base 0
 _ZN14SemanticWalker12stm_enquantoEN5antlr11ASTRefCountI11PortugolASTEE@Base 0
 _ZN14SemanticWalker17_tokenSet_0_data_E@Base 0
 _ZN14SemanticWalker17_tokenSet_1_data_E@Base 0
 _ZN14SemanticWalker20initializeASTFactoryERN5antlr10ASTFactoryE@Base 0
 _ZN14SemanticWalker3stmEN5antlr11ASTRefCountI11PortugolASTEE@Base 0
 _ZN14SemanticWalker4exprEN5antlr11ASTRefCountI11PortugolASTEE@Base 0
 _ZN14SemanticWalker5fcallEN5antlr11ASTRefCountI11PortugolASTEE@Base 0
 _ZN14SemanticWalker5passoEN5antlr11ASTRefCountI11PortugolASTEE@Base 0
 _ZN14SemanticWalker6inicioEN5antlr11ASTRefCountI11PortugolASTEE@Base 0
 _ZN14SemanticWalker6lvalueEN5antlr11ASTRefCountI11PortugolASTEE@Base 0
 _ZN14SemanticWalker6matrizB5cxx11EN5antlr11ASTRefCountI11PortugolASTEE@Base 0
 _ZN14SemanticWalker6stm_seEN5antlr11ASTRefCountI11PortugolASTEE@Base 0
 _ZN14SemanticWalker7elementEN5antlr11ASTRefCountI11PortugolASTEE@Base 0
 _ZN14SemanticWalker7literalEN5antlr11ASTRefCountI11PortugolASTEE@Base 0
 _ZN14SemanticWalker7stm_retEN5antlr11ASTRefCountI11PortugolASTEE@Base 0
 _ZN14SemanticWalker8ret_typeEN5antlr11ASTRefCountI11PortugolASTEER6Funcao@Base 0
 _ZN14SemanticWalker8stm_attrEN5antlr11ASTRefCountI11PortugolASTEE@Base 0
 _ZN14SemanticWalker8stm_paraEN5antlr11ASTRefCountI11PortugolASTEE@Base 0
 _ZN14SemanticWalker9algoritmoEN5antlr11ASTRefCountI11PortugolASTEE@Base 0
 _ZN14SemanticWalker9func_declEN5antlr11ASTRefCountI11PortugolASTEE@Base 0
 _ZN14SemanticWalker9primitivoB5cxx11EN5antlr11ASTRefCountI11PortugolASTEE@Base 0
 _ZN14SemanticWalker9tipo_primEN5antlr11ASTRefCountI11PortugolASTEE@Base 0
 _ZN14SemanticWalker9variaveisEN5antlr11ASTRefCountI11PortugolASTEE@Base 0
 _ZN15ExpressionValue10dimensionsB5cxx11Ev@Base 0
 _ZN15ExpressionValue12setPrimitiveEb@Base 0
 _ZN15ExpressionValue13setDimensionsERKNSt7__cxx114listIiSaIiEEE@Base 0
 _ZN15ExpressionValue16setPrimitiveTypeEi@Base 0
 _ZN15ExpressionValue2idB5cxx11Ev@Base 0
 _ZN15ExpressionValue3setER10SymbolType@Base 0
 _ZN15ExpressionValue5setIDERKNSt7__cxx1112basic_stringIcSt11char_traitsIcESaIcEEE@Base 0
 _ZN15ExpressionValueC1Ei@Base 0
 _ZN15ExpressionValueC1Ev@Base 0
 _ZN15ExpressionValueC2Ei@Base 0
 _ZN15ExpressionValueC2Ev@Base 0
 _ZN15InterpreterEval10evaluateOuER9ExprValueS1_@Base 0
 _ZN15InterpreterEval11evaluateDifER9ExprValueS1_@Base 0
 _ZN15InterpreterEval11evaluateDivER9ExprValueS1_@Base 0
 _ZN15InterpreterEval11evaluateModER9ExprValueS1_@Base 0
 _ZN15InterpreterEval11execLowerEqER6LValueR9ExprValue@Base 0
 _ZN15InterpreterEval11executeLeiaEv@Base 0
 _ZN15InterpreterEval12castLeiaCharB5cxx11ER8VariableR9ExprValue@Base 0
 _ZN15InterpreterEval12evaluateBitEER9ExprValueS1_@Base 0
 _ZN15InterpreterEval12evaluateMaisER9ExprValueS1_@Base 0
 _ZN15InterpreterEval12execBiggerEqER6LValueR9ExprValue@Base 0
 _ZN15InterpreterEval12getReturningEv@Base 0
 _ZN15InterpreterEval13evaluateBitOuER9ExprValueS1_@Base 0
 _ZN15InterpreterEval13evaluateIgualER9ExprValueS1_@Base 0
 _ZN15InterpreterEval13evaluateMaiorER9ExprValueS1_@Base 0
 _ZN15InterpreterEval13evaluateMenorER9ExprValueS1_@Base 0
 _ZN15InterpreterEval13evaluateMenosER9ExprValueS1_@Base 0
 _ZN15InterpreterEval13evaluateUnNegER9ExprValue@Base 0
 _ZN15InterpreterEval13evaluateUnNotER9ExprValue@Base 0
 _ZN15InterpreterEval13evaluateUnPosER9ExprValue@Base 0
 _ZN15InterpreterEval14evaluateBitXouER9ExprValueS1_@Base 0
 _ZN15InterpreterEval14evaluateMultipER9ExprValueS1_@Base 0
 _ZN15InterpreterEval14evaluateUnBNotER9ExprValue@Base 0
 _ZN15InterpreterEval14executeImprimaERNSt7__cxx114listI9ExprValueSaIS2_EEE@Base 0
 _ZN15InterpreterEval14getLValueValueER6LValue@Base 0
 _ZN15InterpreterEval15endFunctionCallEv@Base 0
 _ZN15InterpreterEval15evaluateMaiorEqER9ExprValueS1_@Base 0
 _ZN15InterpreterEval15evaluateMenorEqER9ExprValueS1_@Base 0
 _ZN15InterpreterEval15execAttributionER6LValueR9ExprValue@Base 0
 _ZN15InterpreterEval17beginFunctionCallERKNSt7__cxx1112basic_stringIcSt11char_traitsIcESaIcEEES7_RNS0_4listI9ExprValueSaIS9_EEEi@Base 0
 _ZN15InterpreterEval17isBuiltInFunctionERKNSt7__cxx1112basic_stringIcSt11char_traitsIcESaIcEEE@Base 0
 _ZN15InterpreterEval18getReturnExprValueERKNSt7__cxx1112basic_stringIcSt11char_traitsIcESaIcEEE@Base 0
 _ZN15InterpreterEval18setReturnExprValueER9ExprValue@Base 0
 _ZN15InterpreterEval19execBuiltInFunctionERKNSt7__cxx1112basic_stringIcSt11char_traitsIcESaIcEEERNS0_4listI9ExprValueSaIS9_EEE@Base 0
 _ZN15InterpreterEval4initERKNSt7__cxx1112basic_stringIcSt11char_traitsIcESaIcEEE@Base 0
 _ZN15InterpreterEval7nextCmdERKNSt7__cxx1112basic_stringIcSt11char_traitsIcESaIcEEEi@Base 0
 _ZN15InterpreterEval9evaluateEER9ExprValueS1_@Base 0
 _ZN15InterpreterEval9execPassoER6LValuei@Base 0
 _ZN15InterpreterEvalC1ER11SymbolTableNSt7__cxx1112basic_stringIcSt11char_traitsIcESaIcEEEi@Base 0
 _ZN15InterpreterEvalC2ER11SymbolTableNSt7__cxx1112basic_stringIcSt11char_traitsIcESaIcEEEi@Base 0
 _ZN16Portugol2CWalker10func_declsEN5antlr11ASTRefCountI11PortugolASTEE@Base 0
 _ZN16Portugol2CWalker10stm_repitaEN5antlr11ASTRefCountI11PortugolASTEE@Base 0
 _ZN16Portugol2CWalker10tokenNamesE@Base 0
 _ZN16Portugol2CWalker11_tokenSet_0E@Base 0
 _ZN16Portugol2CWalker11_tokenSet_1E@Base 0
 _ZN16Portugol2CWalker11tipo_matrizEN5antlr11ASTRefCountI11PortugolASTEE@Base 0
 _ZN16Portugol2CWalker12stm_enquantoEN5antlr11ASTRefCountI11PortugolASTEE@Base 0
 _ZN16Portugol2CWalker17_tokenSet_0_data_E@Base 0
 _ZN16Portugol2CWalker17_tokenSet_1_data_E@Base 0
 _ZN16Portugol2CWalker20initializeASTFactoryERN5antlr10ASTFactoryE@Base 0
 _ZN16Portugol2CWalker3stmEN5antlr11ASTRefCountI11PortugolASTEE@Base 0
 _ZN16Portugol2CWalker4exprEN5antlr11ASTRefCountI11PortugolASTEEi@Base 0
 _ZN16Portugol2CWalker4initERKNSt7__cxx1112basic_stringIcSt11char_traitsIcESaIcEEE@Base 0
 _ZN16Portugol2CWalker5fcallEN5antlr11ASTRefCountI11PortugolASTEEi@Base 0
 _ZN16Portugol2CWalker5passoEN5antlr11ASTRefCountI11PortugolASTEE@Base 0
 _ZN16Portugol2CWalker6lvalueEN5antlr11ASTRefCountI11PortugolASTEE@Base 0
 _ZN16Portugol2CWalker6matrizEN5antlr11ASTRefCountI11PortugolASTEE@Base 0
 _ZN16Portugol2CWalker6stm_seEN5antlr11ASTRefCountI11PortugolASTEE@Base 0
 _ZN16Portugol2CWalker7elementEN5antlr11ASTRefCountI11PortugolASTEEi@Base 0
 _ZN16Portugol2CWalker7literalEN5antlr11ASTRefCountI11PortugolASTEE@Base 0
 _ZN16Portugol2CWalker7stm_retEN5antlr11ASTRefCountI11PortugolASTEE@Base 0
 _ZN16Portugol2CWalker7writelnERKNSt7__cxx1118basic_stringstreamIcSt11char_traitsIcESaIcEEEb@Base 0
 _ZN16Portugol2CWalker8stm_attrEN5antlr11ASTRefCountI11PortugolASTEE@Base 0
 _ZN16Portugol2CWalker8stm_paraEN5antlr11ASTRefCountI11PortugolASTEE@Base 0
 _ZN16Portugol2CWalker9algoritmoB5cxx11EN5antlr11ASTRefCountI11PortugolASTEE@Base 0
 _ZN16Portugol2CWalker9primitivoEN5antlr11ASTRefCountI11PortugolASTEE@Base 0
 _ZN16Portugol2CWalker9principalEN5antlr11ASTRefCountI11PortugolASTEE@Base 0
 _ZN16Portugol2CWalker9stm_blockEN5antlr11ASTRefCountI11PortugolASTEE@Base 0
 _ZN16Portugol2CWalker9tipo_primEN5antlr11ASTRefCountI11PortugolASTEE@Base 0
 _ZN16Portugol2CWalker9variaveisEN5antlr11ASTRefCountI11PortugolASTEE@Base 0
 _ZN17InterpreterWalker10func_declsEN5antlr11ASTRefCountI11PortugolASTEERNSt7__cxx114listI9ExprValueSaIS6_EEEi@Base 0
 _ZN17InterpreterWalker10stm_repitaEN5antlr11ASTRefCountI11PortugolASTEE@Base 0
 _ZN17InterpreterWalker10tokenNamesE@Base 0
 _ZN17InterpreterWalker11_tokenSet_0E@Base 0
 _ZN17InterpreterWalker11_tokenSet_1E@Base 0
 _ZN17InterpreterWalker11_tokenSet_2E@Base 0
 _ZN17InterpreterWalker12stm_enquantoEN5antlr11ASTRefCountI11PortugolASTEE@Base 0
 _ZN17InterpreterWalker15getFunctionNodeERKNSt7__cxx1112basic_stringIcSt11char_traitsIcESaIcEEE@Base 0
 _ZN17InterpreterWalker17_tokenSet_0_data_E@Base 0
 _ZN17InterpreterWalker17_tokenSet_1_data_E@Base 0
 _ZN17InterpreterWalker17_tokenSet_2_data_E@Base 0
 _ZN17InterpreterWalker20initializeASTFactoryERN5antlr10ASTFactoryE@Base 0
 _ZN17InterpreterWalker22conditional_statementsEN5antlr11ASTRefCountI11PortugolASTEEb@Base 0
 _ZN17InterpreterWalker3stmEN5antlr11ASTRefCountI11PortugolASTEE@Base 0
 _ZN17InterpreterWalker4exprEN5antlr11ASTRefCountI11PortugolASTEE@Base 0
 _ZN17InterpreterWalker5fcallEN5antlr11ASTRefCountI11PortugolASTEE@Base 0
 _ZN17InterpreterWalker5passoEN5antlr11ASTRefCountI11PortugolASTEE@Base 0
 _ZN17InterpreterWalker6inicioEN5antlr11ASTRefCountI11PortugolASTEE@Base 0
 _ZN17InterpreterWalker6lvalueEN5antlr11ASTRefCountI11PortugolASTEE@Base 0
 _ZN17InterpreterWalker6stm_seEN5antlr11ASTRefCountI11PortugolASTEE@Base 0
 _ZN17InterpreterWalker7elementEN5antlr11ASTRefCountI11PortugolASTEE@Base 0
 _ZN17InterpreterWalker7literalEN5antlr11ASTRefCountI11PortugolASTEE@Base 0
 _ZN17InterpreterWalker7stm_retEN5antlr11ASTRefCountI11PortugolASTEE@Base 0
 _ZN17InterpreterWalker8stm_attrEN5antlr11ASTRefCountI11PortugolASTEE@Base 0
 _ZN17InterpreterWalker8stm_paraEN5antlr11ASTRefCountI11PortugolASTEE@Base 0
 _ZN17InterpreterWalker9algoritmoEN5antlr11ASTRefCountI11PortugolASTEE@Base 0
 _ZN18BasePortugolParser13nomeAlgoritmoB5cxx11Ev@Base 0
 _ZN18BasePortugolParser15expecting_fimseB5cxx11E@Base 0
 _ZN18BasePortugolParser17expecting_attr_opB5cxx11E@Base 0
 _ZN18BasePortugolParser17reportParserErrorEiNSt7__cxx1112basic_stringIcSt11char_traitsIcESaIcEEES5_S5_@Base 0
 _ZN18BasePortugolParser18expecting_datatypeB5cxx11E@Base 0
 _ZN18BasePortugolParser18expecting_variableB5cxx11E@Base 0
 _ZN18BasePortugolParser19getTokenDescriptionB5cxx11ERKN5antlr13TokenRefCountINS0_5TokenEEE@Base 0
 _ZN18BasePortugolParser20expecting_expressionB5cxx11E@Base 0
 _ZN18BasePortugolParser20expecting_identifierB5cxx11E@Base 0
 _ZN18BasePortugolParser20expecting_stm_or_ateB5cxx11E@Base 0
 _ZN18BasePortugolParser20expecting_stm_or_fimB5cxx11E@Base 0
 _ZN18BasePortugolParser21expecting_datatype_plB5cxx11E@Base 0
 _ZN18BasePortugolParser22expecting_stm_or_fimseB5cxx11E@Base 0
 _ZN18BasePortugolParser23expecting_fimvar_or_varB5cxx11E@Base 0
 _ZN18BasePortugolParser23expecting_function_nameB5cxx11E@Base 0
 _ZN18BasePortugolParser23expecting_stm_or_fimenqB5cxx11E@Base 0
 _ZN18BasePortugolParser24expecting_algorithm_nameB5cxx11E@Base 0
 _ZN18BasePortugolParser24expecting_stm_or_fimparaB5cxx11E@Base 0
 _ZN18BasePortugolParser24expecting_valid_sentenceB5cxx11E@Base 0
 _ZN18BasePortugolParser25expecting_eof_or_functionB5cxx11E@Base 0
 _ZN18BasePortugolParser25expecting_param_or_fparenB5cxx11E@Base 0
 _ZN18BasePortugolParser5matchERKN5antlr6BitSetE@Base 0
 _ZN18BasePortugolParser5matchEi@Base 0
 _ZN18BasePortugolParser8matchNotEi@Base 0
 _ZN18BasePortugolParser8printTipERKNSt7__cxx1112basic_stringIcSt11char_traitsIcESaIcEEEii@Base 0
 _ZN18BasePortugolParserC1ERKN5antlr8RefCountINS0_16ParserInputStateEEEi@Base 0
 _ZN18BasePortugolParserC1ERN5antlr11TokenBufferEi@Base 0
 _ZN18BasePortugolParserC1ERN5antlr11TokenStreamEi@Base 0
 _ZN18BasePortugolParserC2ERKN5antlr8RefCountINS0_16ParserInputStateEEEi@Base 0
 _ZN18BasePortugolParserC2ERN5antlr11TokenBufferEi@Base 0
 _ZN18BasePortugolParserC2ERN5antlr11TokenStreamEi@Base 0
 _ZN18UnicodeCharScanner10matchRangeEjj@Base 0
 _ZN18UnicodeCharScanner11reportErrorERKN5antlr20RecognitionExceptionE@Base 0
 _ZN18UnicodeCharScanner11reportErrorERKNSt7__cxx1112basic_stringIcSt11char_traitsIcESaIcEEE@Base 0
 _ZN18UnicodeCharScanner11setFilenameERKNSt7__cxx1112basic_stringIcSt11char_traitsIcESaIcEEE@Base 0
 _ZN18UnicodeCharScanner12consumeUntilERKN5antlr6BitSetE@Base 0
 _ZN18UnicodeCharScanner12consumeUntilEj@Base 0
 _ZN18UnicodeCharScanner13getInputStateEv@Base 0
 _ZN18UnicodeCharScanner13reportWarningERKNSt7__cxx1112basic_stringIcSt11char_traitsIcESaIcEEE@Base 0
 _ZN18UnicodeCharScanner13setInputStateEN5antlr8RefCountINS0_15LexerInputStateEEE@Base 0
 _ZN18UnicodeCharScanner14getInputBufferEv@Base 0
 _ZN18UnicodeCharScanner15setCommitToPathEb@Base 0
 _ZN18UnicodeCharScanner16setCaseSensitiveEb@Base 0
 _ZN18UnicodeCharScanner21setTokenObjectFactoryEPFN5antlr13TokenRefCountINS0_5TokenEEEvE@Base 0
 _ZN18UnicodeCharScanner2LAEj@Base 0
 _ZN18UnicodeCharScanner3tabEv@Base 0
 _ZN18UnicodeCharScanner4markEv@Base 0
 _ZN18UnicodeCharScanner5matchEPKc@Base 0
 _ZN18UnicodeCharScanner5matchERKN5antlr6BitSetE@Base 0
 _ZN18UnicodeCharScanner5matchERKNSt7__cxx1112basic_stringIcSt11char_traitsIcESaIcEEE@Base 0
 _ZN18UnicodeCharScanner5matchEj@Base 0
 _ZN18UnicodeCharScanner6appendERKNSt7__cxx1112basic_stringIcSt11char_traitsIcESaIcEEE@Base 0
 _ZN18UnicodeCharScanner6appendEj@Base 0
 _ZN18UnicodeCharScanner6commitEv@Base 0
 _ZN18UnicodeCharScanner6rewindEj@Base 0
 _ZN18UnicodeCharScanner7consumeEv@Base 0
 _ZN18UnicodeCharScanner7newlineEv@Base 0
 _ZN18UnicodeCharScanner7setLineEi@Base 0
 _ZN18UnicodeCharScanner7setTextERKNSt7__cxx1112basic_stringIcSt11char_traitsIcESaIcEEE@Base 0
 _ZN18UnicodeCharScanner7uponEOFEv@Base 0
 _ZN18UnicodeCharScanner8matchNotEj@Base 0
 _ZN18UnicodeCharScanner9makeTokenEi@Base 0
 _ZN18UnicodeCharScanner9resetTextEv@Base 0
 _ZN18UnicodeCharScanner9setColumnEi@Base 0
 _ZN18UnicodeCharScannerD0Ev@Base 0
 _ZN18UnicodeCharScannerD1Ev@Base 0
 _ZN18UnicodeCharScannerD2Ev@Base 0
 _ZN20SymbolTableExceptionD1Ev@Base 0
 _ZN20SymbolTableExceptionD2Ev@Base 0
 _ZN20UniqueErrorExceptionD1Ev@Base 0
 _ZN20UniqueErrorExceptionD2Ev@Base 0
 _ZN30MismatchedUnicodeCharExceptionC1EjN5antlr6BitSetEbP18UnicodeCharScanner@Base 0
 _ZN30MismatchedUnicodeCharExceptionC1EjjbP18UnicodeCharScanner@Base 0
 _ZN30MismatchedUnicodeCharExceptionC1EjjjbP18UnicodeCharScanner@Base 0
 _ZN30MismatchedUnicodeCharExceptionC1Ev@Base 0
 _ZN30MismatchedUnicodeCharExceptionC2EjN5antlr6BitSetEbP18UnicodeCharScanner@Base 0
 _ZN30MismatchedUnicodeCharExceptionC2EjjbP18UnicodeCharScanner@Base 0
 _ZN30MismatchedUnicodeCharExceptionC2EjjjbP18UnicodeCharScanner@Base 0
 _ZN30MismatchedUnicodeCharExceptionC2Ev@Base 0
 _ZN30MismatchedUnicodeCharExceptionD0Ev@Base 0
 _ZN30MismatchedUnicodeCharExceptionD1Ev@Base 0
 _ZN30MismatchedUnicodeCharExceptionD2Ev@Base 0
 _ZN3X8610EntryPointB5cxx11E@Base 0
 _ZN3X8610writeEExprEv@Base 0
 _ZN3X8611createLabelEbNSt7__cxx1112basic_stringIcSt11char_traitsIcESaIcEEE@Base 0
 _ZN3X8611createScopeERKNSt7__cxx1112basic_stringIcSt11char_traitsIcESaIcEEE@Base 0
 _ZN3X8611writeOuExprEv@Base 0
 _ZN3X8612currentScopeB5cxx11Ev@Base 0
 _ZN3X8612toNasmStringENSt7__cxx1112basic_stringIcSt11char_traitsIcESaIcEEE@Base 0
 _ZN3X8612writeDivExprEii@Base 0
 _ZN3X8612writeModExprEv@Base 0
 _ZN3X8613declareMatrixEiiNSt7__cxx1112basic_stringIcSt11char_traitsIcESaIcEEENS0_4listIS5_SaIS5_EEE@Base 0
 _ZN3X8613writeBitEExprEv@Base 0
 _ZN3X8613writeMaisExprEii@Base 0
 _ZN3X8613writeUnaryNegEi@Base 0
 _ZN3X8613writeUnaryNotEv@Base 0
 _ZN3X8614writeBitOuExprEv@Base 0
 _ZN3X8614writeIgualExprEii@Base 0
 _ZN3X8614writeMaiorExprEii@Base 0
 _ZN3X8614writeMenorExprEii@Base 0
 _ZN3X8614writeMenosExprEii@Base 0
 _ZN3X8615writeBitXouExprEv@Base 0
 _ZN3X8615writeLValueExprERSt4pairIS0_IibENSt7__cxx1112basic_stringIcSt11char_traitsIcESaIcEEEE@Base 0
 _ZN3X8615writeMultipExprEii@Base 0
 _ZN3X8616addGlobalLiteralENSt7__cxx1112basic_stringIcSt11char_traitsIcESaIcEEE@Base 0
 _ZN3X8616declarePrimitiveEiRKNSt7__cxx1112basic_stringIcSt11char_traitsIcESaIcEEEi@Base 0
 _ZN3X8616writeAttributionEiiRSt4pairIS0_IibENSt7__cxx1112basic_stringIcSt11char_traitsIcESaIcEEEE@Base 0
 _ZN3X8616writeLiteralExprERKNSt7__cxx1112basic_stringIcSt11char_traitsIcESaIcEEE@Base 0
 _ZN3X8616writeMaiorEqExprEii@Base 0
 _ZN3X8616writeMenorEqExprEii@Base 0
 _ZN3X8617translateFuncLeiaERKNSt7__cxx1112basic_stringIcSt11char_traitsIcESaIcEEEi@Base 0
 _ZN3X8618writeDiferenteExprEii@Base 0
 _ZN3X8620translateFuncImprimaERKNSt7__cxx1112basic_stringIcSt11char_traitsIcESaIcEEEi@Base 0
 _ZN3X8620writeUnaryBitNotExprEv@Base 0
 _ZN3X864initERKNSt7__cxx1112basic_stringIcSt11char_traitsIcESaIcEEE@Base 0
 _ZN3X866makeIDERKNSt7__cxx1112basic_stringIcSt11char_traitsIcESaIcEEE@Base 0
 _ZN3X866sourceB5cxx11Ev@Base 0
 _ZN3X866toCharERKNSt7__cxx1112basic_stringIcSt11char_traitsIcESaIcEEE@Base 0
 _ZN3X866toRealERKNSt7__cxx1112basic_stringIcSt11char_traitsIcESaIcEEE@Base 0
 _ZN3X868writeBSSERKNSt7__cxx1112basic_stringIcSt11char_traitsIcESaIcEEE@Base 0
 _ZN3X869writeCastEii@Base 0
 _ZN3X869writeDATAERKNSt7__cxx1112basic_stringIcSt11char_traitsIcESaIcEEE@Base 0
 _ZN3X869writeExitEv@Base 0
 _ZN3X869writeTEXTERKNSt7__cxx1112basic_stringIcSt11char_traitsIcESaIcEEE@Base 0
 _ZN3X86C1ER11SymbolTable@Base 0
 _ZN3X86C2ER11SymbolTable@Base 0
 _ZN3X86D1Ev@Base 0
 _ZN3X86D2Ev@Base 0
 _ZN5antlr10TreeParser5matchENS_11ASTRefCountINS_3ASTEEEi@Base 0
 _ZN5antlr11ASTRefCountI11PortugolASTED1Ev@Base 0
 _ZN5antlr11ASTRefCountI11PortugolASTED2Ev@Base 0
 _ZN5antlr11ASTRefCountINS_3ASTEED1Ev@Base 0
 _ZN5antlr11ASTRefCountINS_3ASTEED2Ev@Base 0
 _ZN5antlr11CharScanner10matchRangeEii@Base 0
 _ZN5antlr11CharScanner11setFilenameERKNSt7__cxx1112basic_stringIcSt11char_traitsIcESaIcEEE@Base 0
 _ZN5antlr11CharScanner12consumeUntilERKNS_6BitSetE@Base 0
 _ZN5antlr11CharScanner12consumeUntilEi@Base 0
 _ZN5antlr11CharScanner13getInputStateEv@Base 0
 _ZN5antlr11CharScanner13setInputStateENS_8RefCountINS_15LexerInputStateEEE@Base 0
 _ZN5antlr11CharScanner14getInputBufferEv@Base 0
 _ZN5antlr11CharScanner15setCommitToPathEb@Base 0
 _ZN5antlr11CharScanner16setCaseSensitiveEb@Base 0
 _ZN5antlr11CharScanner21setTokenObjectFactoryEPFNS_13TokenRefCountINS_5TokenEEEvE@Base 0
 _ZN5antlr11CharScanner2LAEj@Base 0
 _ZN5antlr11CharScanner3tabEv@Base 0
 _ZN5antlr11CharScanner4markEv@Base 0
 _ZN5antlr11CharScanner5matchEPKc@Base 0
 _ZN5antlr11CharScanner5matchERKNS_6BitSetE@Base 0
 _ZN5antlr11CharScanner5matchERKNSt7__cxx1112basic_stringIcSt11char_traitsIcESaIcEEE@Base 0
 _ZN5antlr11CharScanner5matchEi@Base 0
 _ZN5antlr11CharScanner6appendERKNSt7__cxx1112basic_stringIcSt11char_traitsIcESaIcEEE@Base 0
 _ZN5antlr11CharScanner6appendEc@Base 0
 _ZN5antlr11CharScanner6commitEv@Base 0
 _ZN5antlr11CharScanner6rewindEj@Base 0
 _ZN5antlr11CharScanner7consumeEv@Base 0
 _ZN5antlr11CharScanner7newlineEv@Base 0
 _ZN5antlr11CharScanner7recoverERKNS_20RecognitionExceptionERKNS_6BitSetE@Base 0
 _ZN5antlr11CharScanner7setLineEi@Base 0
 _ZN5antlr11CharScanner7setTextERKNSt7__cxx1112basic_stringIcSt11char_traitsIcESaIcEEE@Base 0
 _ZN5antlr11CharScanner7uponEOFEv@Base 0
 _ZN5antlr11CharScanner8matchNotEi@Base 0
 _ZN5antlr11CharScanner9makeTokenEi@Base 0
 _ZN5antlr11CharScanner9resetTextEv@Base 0
 _ZN5antlr11CharScanner9setColumnEi@Base 0
 _ZN5antlr11InputBuffer2LAEj@Base 0
 _ZN5antlr11InputBuffer5resetEv@Base 0
 _ZN5antlr11InputBuffer7consumeEv@Base 0
 _ZN5antlr13TokenRefCountINS_5TokenEED1Ev@Base 0
 _ZN5antlr13TokenRefCountINS_5TokenEED2Ev@Base 0
 _ZN5antlr13TokenRefCountINS_5TokenEEaSERKS2_@Base 0
 _ZN5antlr14ANTLRExceptionD0Ev@Base 0
 _ZN5antlr14ANTLRExceptionD1Ev@Base 0
 _ZN5antlr14ANTLRExceptionD2Ev@Base 0
 _ZN5antlr15LexerInputState10initializeERSiPKc@Base 0
 _ZN5antlr15LexerInputState5resetEv@Base 0
 _ZN5antlr15LexerInputStateD0Ev@Base 0
 _ZN5antlr15LexerInputStateD1Ev@Base 0
 _ZN5antlr15LexerInputStateD2Ev@Base 0
 _ZN5antlr16ParserInputStateD0Ev@Base 0
 _ZN5antlr16ParserInputStateD1Ev@Base 0
 _ZN5antlr16ParserInputStateD2Ev@Base 0
 _ZN5antlr17SemanticExceptionD0Ev@Base 0
 _ZN5antlr17SemanticExceptionD1Ev@Base 0
 _ZN5antlr17SemanticExceptionD2Ev@Base 0
 _ZN5antlr20NoViableAltExceptionC1ERKS0_@Base 0
 _ZN5antlr20NoViableAltExceptionC2ERKS0_@Base 0
 _ZN5antlr20NoViableAltExceptionD0Ev@Base 0
 _ZN5antlr20NoViableAltExceptionD1Ev@Base 0
 _ZN5antlr20NoViableAltExceptionD2Ev@Base 0
 _ZN5antlr20RecognitionExceptionD0Ev@Base 0
 _ZN5antlr20RecognitionExceptionD1Ev@Base 0
 _ZN5antlr20RecognitionExceptionD2Ev@Base 0
 _ZN5antlr20TokenStreamExceptionD0Ev@Base 0
 _ZN5antlr20TokenStreamExceptionD1Ev@Base 0
 _ZN5antlr20TokenStreamExceptionD2Ev@Base 0
 _ZN5antlr22TokenStreamIOExceptionD0Ev@Base 0
 _ZN5antlr22TokenStreamIOExceptionD1Ev@Base 0
 _ZN5antlr22TokenStreamIOExceptionD2Ev@Base 0
 _ZN5antlr23MismatchedCharExceptionD0Ev@Base 0
 _ZN5antlr23MismatchedCharExceptionD1Ev@Base 0
 _ZN5antlr23MismatchedCharExceptionD2Ev@Base 0
 _ZN5antlr24MismatchedTokenExceptionC1ERKS0_@Base 0
 _ZN5antlr24MismatchedTokenExceptionC2ERKS0_@Base 0
 _ZN5antlr24MismatchedTokenExceptionD0Ev@Base 0
 _ZN5antlr24MismatchedTokenExceptionD1Ev@Base 0
 _ZN5antlr24MismatchedTokenExceptionD2Ev@Base 0
 _ZN5antlr27NoViableAltForCharExceptionD0Ev@Base 0
 _ZN5antlr27NoViableAltForCharExceptionD1Ev@Base 0
 _ZN5antlr27NoViableAltForCharExceptionD2Ev@Base 0
 _ZN5antlr31TokenStreamRecognitionExceptionC1ERNS_20RecognitionExceptionE@Base 0
 _ZN5antlr31TokenStreamRecognitionExceptionC2ERNS_20RecognitionExceptionE@Base 0
 _ZN5antlr31TokenStreamRecognitionExceptionD0Ev@Base 0
 _ZN5antlr31TokenStreamRecognitionExceptionD1Ev@Base 0
 _ZN5antlr31TokenStreamRecognitionExceptionD2Ev@Base 0
 _ZN5antlr6Parser11setFilenameERKNSt7__cxx1112basic_stringIcSt11char_traitsIcESaIcEEE@Base 0
 _ZN5antlr6Parser12consumeUntilERKNS_6BitSetE@Base 0
 _ZN5antlr6Parser12consumeUntilEi@Base 0
 _ZN5antlr6Parser13getASTFactoryEv@Base 0
 _ZN5antlr6Parser13setASTFactoryEPNS_10ASTFactoryE@Base 0
 _ZN5antlr6Parser13setInputStateENS_8RefCountINS_16ParserInputStateEEE@Base 0
 _ZN5antlr6Parser17setASTNodeFactoryEPNS_10ASTFactoryE@Base 0
 _ZN5antlr6Parser4markEv@Base 0
 _ZN5antlr6Parser5matchERKNS_6BitSetE@Base 0
 _ZN5antlr6Parser5matchEi@Base 0
 _ZN5antlr6Parser6rewindEj@Base 0
 _ZN5antlr6Parser7recoverERKNS_20RecognitionExceptionERKNS_6BitSetE@Base 0
 _ZN5antlr7ASTPair17advanceChildToEndEv@Base 0
 _ZN5antlr7BaseAST13setFirstChildENS_11ASTRefCountINS_3ASTEEE@Base 0
 _ZN5antlr7BaseAST14removeChildrenEv@Base 0
 _ZN5antlr7BaseAST14setNextSiblingENS_11ASTRefCountINS_3ASTEEE@Base 0
 _ZN5antlr7BaseAST7setTextERKNSt7__cxx1112basic_stringIcSt11char_traitsIcESaIcEEE@Base 0
 _ZN5antlr7BaseAST7setTypeEi@Base 0
 _ZN5antlr7BaseAST8addChildENS_11ASTRefCountINS_3ASTEEE@Base 0
 _ZN5antlr7BaseASTD0Ev@Base 0
 _ZN5antlr7BaseASTD1Ev@Base 0
 _ZN5antlr7BaseASTD2Ev@Base 0
 _ZN5antlr8ASTArray3addENS_11ASTRefCountINS_3ASTEEE@Base 0
 _ZN5antlr9CommonAST10initializeENS_11ASTRefCountINS_3ASTEEE@Base 0
 _ZN5antlr9CommonAST10initializeENS_13TokenRefCountINS_5TokenEEE@Base 0
 _ZN5antlr9CommonAST10initializeEiRKNSt7__cxx1112basic_stringIcSt11char_traitsIcESaIcEEE@Base 0
 _ZN5antlr9CommonAST7setTextERKNSt7__cxx1112basic_stringIcSt11char_traitsIcESaIcEEE@Base 0
 _ZN5antlr9CommonAST7setTypeEi@Base 0
 _ZN5antlr9CommonASTD0Ev@Base 0
 _ZN5antlr9CommonASTD1Ev@Base 0
 _ZN5antlr9CommonASTD2Ev@Base 0
 _ZN5antlr9LLkParser2LAEj@Base 0
 _ZN5antlr9LLkParser2LTEj@Base 0
 _ZN5antlr9LLkParser7consumeEv@Base 0
 _ZN6Funcao9addParamsERSt4pairIS0_IiNSt7__cxx114listIiSaIiEEEENS2_IN5antlr11ASTRefCountI11PortugolASTEESaIS9_EEEE@Base 0
 _ZN6FuncaoD1Ev@Base 0
 _ZN6FuncaoD2Ev@Base 0
 _ZN6LValue12dimsToStringB5cxx11Ev@Base 0
 _ZN6LValue14addMatrixIndexER9ExprValue@Base 0
 _ZN6Symbol12typeToStringB5cxx11Ei@Base 0
 _ZN6SymbolC1ERKNSt7__cxx1112basic_stringIcSt11char_traitsIcESaIcEEES7_ib@Base 0
 _ZN6SymbolC1ERKNSt7__cxx1112basic_stringIcSt11char_traitsIcESaIcEEES7_ibi@Base 0
 _ZN6SymbolC1ERKNSt7__cxx1112basic_stringIcSt11char_traitsIcESaIcEEES7_ibiRKNS0_4listIiSaIiEEE@Base 0
 _ZN6SymbolC1ERKS_@Base 0
 _ZN6SymbolC1Ev@Base 0
 _ZN6SymbolC2ERKNSt7__cxx1112basic_stringIcSt11char_traitsIcESaIcEEES7_ib@Base 0
 _ZN6SymbolC2ERKNSt7__cxx1112basic_stringIcSt11char_traitsIcESaIcEEES7_ibi@Base 0
 _ZN6SymbolC2ERKNSt7__cxx1112basic_stringIcSt11char_traitsIcESaIcEEES7_ibiRKNS0_4listIiSaIiEEE@Base 0
 _ZN6SymbolC2ERKS_@Base 0
 _ZN6SymbolC2Ev@Base 0
 _ZN6SymbolD1Ev@Base 0
 _ZN6SymbolD2Ev@Base 0
 _ZN8Variable11checkBoundsERNSt7__cxx114listINS0_12basic_stringIcSt11char_traitsIcESaIcEEESaIS6_EEE@Base 0
 _ZN8Variable7castValENSt7__cxx1112basic_stringIcSt11char_traitsIcESaIcEEE@Base 0
 _ZN8Variable8getValueERNSt7__cxx114listINS0_12basic_stringIcSt11char_traitsIcESaIcEEESaIS6_EEE@Base 0
 _ZN8Variable8setValueENSt7__cxx1112basic_stringIcSt11char_traitsIcESaIcEEE@Base 0
 _ZN8Variable8setValueERNSt7__cxx114listINS0_12basic_stringIcSt11char_traitsIcESaIcEEESaIS6_EEES6_@Base 0
 _ZN8VariableD1Ev@Base 0
 _ZN8VariableD2Ev@Base 0
 _ZN9ExprValue6ifTrueEv@Base 0
 _ZN9ExprValue8setValueENSt7__cxx1112basic_stringIcSt11char_traitsIcESaIcEEE@Base 0
 _ZN9ExprValue8setValueERKNSt7__cxx1118basic_stringstreamIcSt11char_traitsIcESaIcEEE@Base 0
 _ZN9ExprValueD1Ev@Base 0
 _ZN9ExprValueD2Ev@Base 0
 _ZN9Variables10getGlobalsB5cxx11Ev@Base 0
 _ZN9Variables10popContextEv@Base 0
 _ZN9Variables16pushLocalContextERSt3mapINSt7__cxx1112basic_stringIcSt11char_traitsIcESaIcEEE8VariableSt4lessIS6_ESaISt4pairIKS6_S7_EEE@Base 0
 _ZN9Variables3getERKNSt7__cxx1112basic_stringIcSt11char_traitsIcESaIcEEE@Base 0
 _ZN9Variables4initERSt3mapINSt7__cxx1112basic_stringIcSt11char_traitsIcESaIcEEE8VariableSt4lessIS6_ESaISt4pairIKS6_S7_EEE@Base 0
 _ZN9Variables9getLocalsB5cxx11Ev@Base 0
 _ZN9X86Walker10func_declsEN5antlr11ASTRefCountI11PortugolASTEE@Base 0
 _ZN9X86Walker10stm_repitaEN5antlr11ASTRefCountI11PortugolASTEE@Base 0
 _ZN9X86Walker10tokenNamesE@Base 0
 _ZN9X86Walker11_tokenSet_0E@Base 0
 _ZN9X86Walker11_tokenSet_1E@Base 0
 _ZN9X86Walker11tipo_matrizB5cxx11EN5antlr11ASTRefCountI11PortugolASTEE@Base 0
 _ZN9X86Walker12stm_enquantoEN5antlr11ASTRefCountI11PortugolASTEE@Base 0
 _ZN9X86Walker17_tokenSet_0_data_E@Base 0
 _ZN9X86Walker17_tokenSet_1_data_E@Base 0
 _ZN9X86Walker20initializeASTFactoryERN5antlr10ASTFactoryE@Base 0
 _ZN9X86Walker3stmEN5antlr11ASTRefCountI11PortugolASTEE@Base 0
 _ZN9X86Walker4exprEN5antlr11ASTRefCountI11PortugolASTEEi@Base 0
 _ZN9X86Walker5fcallEN5antlr11ASTRefCountI11PortugolASTEEi@Base 0
 _ZN9X86Walker5passoB5cxx11EN5antlr11ASTRefCountI11PortugolASTEE@Base 0
 _ZN9X86Walker6lvalueB5cxx11EN5antlr11ASTRefCountI11PortugolASTEE@Base 0
 _ZN9X86Walker6matrizEN5antlr11ASTRefCountI11PortugolASTEEi@Base 0
 _ZN9X86Walker6stm_seEN5antlr11ASTRefCountI11PortugolASTEE@Base 0
 _ZN9X86Walker7elementEN5antlr11ASTRefCountI11PortugolASTEEi@Base 0
 _ZN9X86Walker7literalB5cxx11EN5antlr11ASTRefCountI11PortugolASTEE@Base 0
 _ZN9X86Walker7stm_retEN5antlr11ASTRefCountI11PortugolASTEE@Base 0
 _ZN9X86Walker8stm_attrEN5antlr11ASTRefCountI11PortugolASTEE@Base 0
 _ZN9X86Walker8stm_paraEN5antlr11ASTRefCountI11PortugolASTEE@Base 0
 _ZN9X86Walker9algoritmoB5cxx11EN5antlr11ASTRefCountI11PortugolASTEE@Base 0
 _ZN9X86Walker9primitivoEN5antlr11ASTRefCountI11PortugolASTEEi@Base 0
 _ZN9X86Walker9principalEN5antlr11ASTRefCountI11PortugolASTEE@Base 0
 _ZN9X86Walker9stm_blockEN5antlr11ASTRefCountI11PortugolASTEE@Base 0
 _ZN9X86Walker9tipo_primEN5antlr11ASTRefCountI11PortugolASTEE@Base 0
 _ZN9X86Walker9variaveisEN5antlr11ASTRefCountI11PortugolASTEEi@Base 0
 _ZNK10SymbolType11isPrimitiveEv@Base 0
 _ZNK10SymbolType13primitiveTypeEv@Base 0
 _ZNK10SymbolType8toStringB5cxx11Ev@Base 0
 _ZNK11PortugolAST5cloneEv@Base 0
 _ZNK11PortugolAST8typeNameEv@Base 0
 _ZNK13PortugolLexer24getCaseSensitiveLiteralsEv@Base 0
 _ZNK14PortugolParser12getNumTokensEv@Base 0
 _ZNK14PortugolParser12getTokenNameEi@Base 0
 _ZNK14PortugolParser13getTokenNamesEv@Base 0
 _ZNK15ExpressionValue11isPrimitiveEv@Base 0
 _ZNK15ExpressionValue11matchesTypeEb@Base 0
 _ZNK15ExpressionValue13primitiveTypeEv@Base 0
 _ZNK15ExpressionValue17isCompatibleWidthER10SymbolType@Base 0
 _ZNK15ExpressionValue17isCompatibleWidthERS_@Base 0
 _ZNK15ExpressionValue17matchesDimensionsERNSt7__cxx114listIiSaIiEEE@Base 0
 _ZNK15ExpressionValue20matchesPrimitiveTypeEi@Base 0
 _ZNK15ExpressionValue8toStringB5cxx11Ev@Base 0
 _ZNK15ExpressionValue9isNumericEb@Base 0
 _ZNK18UnicodeCharScanner11getFilenameB5cxx11Ev@Base 0
 _ZNK18UnicodeCharScanner14getTokenObjectEv@Base 0
 _ZNK18UnicodeCharScanner15getCommitToPathEv@Base 0
 _ZNK18UnicodeCharScanner16getCaseSensitiveEv@Base 0
 _ZNK18UnicodeCharScanner17testLiteralsTableERKNSt7__cxx1112basic_stringIcSt11char_traitsIcESaIcEEEi@Base 0
 _ZNK18UnicodeCharScanner17testLiteralsTableEi@Base 0
 _ZNK18UnicodeCharScanner7getLineEv@Base 0
 _ZNK18UnicodeCharScanner7getTextB5cxx11Ev@Base 0
 _ZNK18UnicodeCharScanner7toLowerEj@Base 0
 _ZNK18UnicodeCharScanner9getColumnEv@Base 0
 _ZNK30MismatchedUnicodeCharException10getMessageB5cxx11Ev@Base 0
 _ZNK5antlr11CharScanner11getFilenameB5cxx11Ev@Base 0
 _ZNK5antlr11CharScanner14getTokenObjectEv@Base 0
 _ZNK5antlr11CharScanner15getCommitToPathEv@Base 0
 _ZNK5antlr11CharScanner16getCaseSensitiveEv@Base 0
 _ZNK5antlr11CharScanner17testLiteralsTableERKNSt7__cxx1112basic_stringIcSt11char_traitsIcESaIcEEEi@Base 0
 _ZNK5antlr11CharScanner17testLiteralsTableEi@Base 0
 _ZNK5antlr11CharScanner7getLineEv@Base 0
 _ZNK5antlr11CharScanner7getTextB5cxx11Ev@Base 0
 _ZNK5antlr11CharScanner7toLowerEi@Base 0
 _ZNK5antlr11CharScanner9getColumnEv@Base 0
 _ZNK5antlr14ANTLRException10getMessageB5cxx11Ev@Base 0
 _ZNK5antlr14ANTLRException8toStringB5cxx11Ev@Base 0
 _ZNK5antlr20RecognitionException11getFilenameB5cxx11Ev@Base 0
 _ZNK5antlr20RecognitionException7getLineEv@Base 0
 _ZNK5antlr20RecognitionException9getColumnEv@Base 0
 _ZNK5antlr31TokenStreamRecognitionException11getFilenameB5cxx11Ev@Base 0
 _ZNK5antlr31TokenStreamRecognitionException7getLineEv@Base 0
 _ZNK5antlr31TokenStreamRecognitionException8toStringB5cxx11Ev@Base 0
 _ZNK5antlr31TokenStreamRecognitionException9getColumnEv@Base 0
 _ZNK5antlr6Parser11getFilenameB5cxx11Ev@Base 0
 _ZNK5antlr6Parser13getInputStateEv@Base 0
 _ZNK5antlr7BaseAST13getFirstChildEv@Base 0
 _ZNK5antlr7BaseAST14getNextSiblingEv@Base 0
 _ZNK5antlr7BaseAST6equalsENS_11ASTRefCountINS_3ASTEEE@Base 0
 _ZNK5antlr7BaseAST7getTextB5cxx11Ev@Base 0
 _ZNK5antlr7BaseAST7getTypeEv@Base 0
 _ZNK5antlr7BaseAST8toStringB5cxx11Ev@Base 0
 _ZNK5antlr9CommonAST5cloneEv@Base 0
 _ZNK5antlr9CommonAST7getTextB5cxx11Ev@Base 0
 _ZNK5antlr9CommonAST7getTypeEv@Base 0
 _ZNK5antlr9CommonAST8typeNameEv@Base 0
 _ZNK6Symbol7isValidEv@Base 0
 _ZNKSt5ctypeIcE8do_widenEc@Base 0
 _ZNKSt8_Rb_treeINSt7__cxx1112basic_stringIcSt11char_traitsIcESaIcEEESt4pairIKS5_iESt10_Select1stIS8_EN5antlr23CharScannerLiteralsLessESaIS8_EE4findERS7_@Base 0
 _ZNKSt8_Rb_treeINSt7__cxx1112basic_stringIcSt11char_traitsIcESaIcEEESt4pairIKS5_iESt10_Select1stIS8_ESt4lessIS5_ESaIS8_EE4findERS7_@Base 0
 _ZNSt15_Rb_tree_headerC1EOS_@Base 0
 _ZNSt15_Rb_tree_headerC2EOS_@Base 0
 _ZNSt15__allocated_ptrISaISt10_List_nodeI15ExpressionValueEEED1Ev@Base 0
 _ZNSt15__allocated_ptrISaISt10_List_nodeI15ExpressionValueEEED2Ev@Base 0
 _ZNSt15__allocated_ptrISaISt10_List_nodeINSt7__cxx1112basic_stringIcSt11char_traitsIcESaIcEEEEEED1Ev@Base 0
 _ZNSt15__allocated_ptrISaISt10_List_nodeINSt7__cxx1112basic_stringIcSt11char_traitsIcESaIcEEEEEED2Ev@Base 0
 _ZNSt15__allocated_ptrISaISt10_List_nodeISt4pairINSt7__cxx1112basic_stringIcSt11char_traitsIcESaIcEEE10SymbolTypeEEEED1Ev@Base 0
 _ZNSt15__allocated_ptrISaISt10_List_nodeISt4pairINSt7__cxx1112basic_stringIcSt11char_traitsIcESaIcEEE10SymbolTypeEEEED2Ev@Base 0
 _ZNSt15__allocated_ptrISaISt10_List_nodeISt4pairINSt7__cxx1112basic_stringIcSt11char_traitsIcESaIcEEES1_IS7_iEEEEED1Ev@Base 0
 _ZNSt15__allocated_ptrISaISt10_List_nodeISt4pairINSt7__cxx1112basic_stringIcSt11char_traitsIcESaIcEEES1_IS7_iEEEEED2Ev@Base 0
 _ZNSt3mapINSt7__cxx1112basic_stringIcSt11char_traitsIcESaIcEEE13X86SubProgramSt4lessIS5_ESaISt4pairIKS5_S6_EEEixEOS5_@Base 0
 _ZNSt3mapINSt7__cxx1112basic_stringIcSt11char_traitsIcESaIcEEEiSt4lessIS5_ESaISt4pairIKS5_iEEEixEOS5_@Base 0
 _ZNSt5dequeIbSaIbEE12emplace_backIJbEEEvDpOT_@Base 0
 _ZNSt5dequeIbSaIbEE17_M_reallocate_mapEmb@Base 0
 _ZNSt6vectorIbSaIbEEC1ERKS1_@Base 0
 _ZNSt6vectorIbSaIbEEC2ERKS1_@Base 0
 _ZNSt7__cxx1110_List_baseI15ExpressionValueSaIS1_EE8_M_clearEv@Base 0
 _ZNSt7__cxx1110_List_baseI6SymbolSaIS1_EE8_M_clearEv@Base 0
 _ZNSt7__cxx1110_List_baseI9ExprValueSaIS1_EE8_M_clearEv@Base 0
 _ZNSt7__cxx1110_List_baseIN10GPTDisplay8ErrorMsgESaIS2_EE8_M_clearEv@Base 0
 _ZNSt7__cxx1110_List_baseIN5antlr11ASTRefCountI11PortugolASTEESaIS4_EE8_M_clearEv@Base 0
 _ZNSt7__cxx1110_List_baseINS_12basic_stringIcSt11char_traitsIcESaIcEEESaIS5_EE8_M_clearEv@Base 0
 _ZNSt7__cxx1110_List_baseISt4pairINS_12basic_stringIcSt11char_traitsIcESaIcEEE10SymbolTypeESaIS8_EE8_M_clearEv@Base 0
 _ZNSt7__cxx1110_List_baseIiSaIiEE8_M_clearEv@Base 0
 _ZNSt7__cxx1115basic_stringbufIcSt11char_traitsIcESaIcEED0Ev@Base 0
 _ZNSt7__cxx1115basic_stringbufIcSt11char_traitsIcESaIcEED1Ev@Base 0
 _ZNSt7__cxx1115basic_stringbufIcSt11char_traitsIcESaIcEED2Ev@Base 0
 _ZNSt7__cxx114listI6SymbolSaIS1_EE9_M_insertIJRKS1_EEEvSt14_List_iteratorIS1_EDpOT_@Base 0
 _ZNSt7__cxx114listINS_12basic_stringIcSt11char_traitsIcESaIcEEESaIS5_EE6insertISt20_List_const_iteratorIS5_EvEESt14_List_iteratorIS5_ESA_T_SD_@Base 0
 _ZNSt7__cxx114listISt4pairINS_12basic_stringIcSt11char_traitsIcESaIcEEE10SymbolTypeESaIS8_EE6insertISt20_List_const_iteratorIS8_EvEESt14_List_iteratorIS8_ESD_T_SG_@Base 0
 _ZNSt8_Rb_treeINSt7__cxx1112basic_stringIcSt11char_traitsIcESaIcEEESt4pairIKS5_13X86SubProgramESt10_Select1stIS9_ESt4lessIS5_ESaIS9_EE24_M_get_insert_unique_posERS7_@Base 0
 _ZNSt8_Rb_treeINSt7__cxx1112basic_stringIcSt11char_traitsIcESaIcEEESt4pairIKS5_13X86SubProgramESt10_Select1stIS9_ESt4lessIS5_ESaIS9_EE29_M_get_insert_hint_unique_posESt23_Rb_tree_const_iteratorIS9_ERS7_@Base 0
 _ZNSt8_Rb_treeINSt7__cxx1112basic_stringIcSt11char_traitsIcESaIcEEESt4pairIKS5_8VariableESt10_Select1stIS9_ESt4lessIS5_ESaIS9_EE20_Reuse_or_alloc_nodeclIRKS9_EEPSt13_Rb_tree_nodeIS9_EOT_@Base 0
 _ZNSt8_Rb_treeINSt7__cxx1112basic_stringIcSt11char_traitsIcESaIcEEESt4pairIKS5_8VariableESt10_Select1stIS9_ESt4lessIS5_ESaIS9_EE24_M_get_insert_unique_posERS7_@Base 0
 _ZNSt8_Rb_treeINSt7__cxx1112basic_stringIcSt11char_traitsIcESaIcEEESt4pairIKS5_8VariableESt10_Select1stIS9_ESt4lessIS5_ESaIS9_EE29_M_get_insert_hint_unique_posESt23_Rb_tree_const_iteratorIS9_ERS7_@Base 0
 _ZNSt8_Rb_treeINSt7__cxx1112basic_stringIcSt11char_traitsIcESaIcEEESt4pairIKS5_8VariableESt10_Select1stIS9_ESt4lessIS5_ESaIS9_EE4findERS7_@Base 0
 _ZNSt8_Rb_treeINSt7__cxx1112basic_stringIcSt11char_traitsIcESaIcEEESt4pairIKS5_8VariableESt10_Select1stIS9_ESt4lessIS5_ESaIS9_EEC1ERKSF_@Base 0
 _ZNSt8_Rb_treeINSt7__cxx1112basic_stringIcSt11char_traitsIcESaIcEEESt4pairIKS5_8VariableESt10_Select1stIS9_ESt4lessIS5_ESaIS9_EEC2ERKSF_@Base 0
 _ZNSt8_Rb_treeINSt7__cxx1112basic_stringIcSt11char_traitsIcESaIcEEESt4pairIKS5_NS0_4listI6SymbolSaIS9_EEEESt10_Select1stISC_ESt4lessIS5_ESaISC_EE24_M_get_insert_unique_posERS7_@Base 0
 _ZNSt8_Rb_treeINSt7__cxx1112basic_stringIcSt11char_traitsIcESaIcEEESt4pairIKS5_NS0_4listI6SymbolSaIS9_EEEESt10_Select1stISC_ESt4lessIS5_ESaISC_EE29_M_get_insert_hint_unique_posESt23_Rb_tree_const_iteratorISC_ERS7_@Base 0
 _ZNSt8_Rb_treeINSt7__cxx1112basic_stringIcSt11char_traitsIcESaIcEEESt4pairIKS5_NS0_4listIiSaIiEEEESt10_Select1stISB_ESt4lessIS5_ESaISB_EE24_M_get_insert_unique_posERS7_@Base 0
 _ZNSt8_Rb_treeINSt7__cxx1112basic_stringIcSt11char_traitsIcESaIcEEESt4pairIKS5_NS0_4listIiSaIiEEEESt10_Select1stISB_ESt4lessIS5_ESaISB_EE29_M_get_insert_hint_unique_posESt23_Rb_tree_const_iteratorISB_ERS7_@Base 0
 _ZNSt8_Rb_treeINSt7__cxx1112basic_stringIcSt11char_traitsIcESaIcEEESt4pairIKS5_S5_ESt10_Select1stIS8_ESt4lessIS5_ESaIS8_EE20_Reuse_or_alloc_nodeclIRKS8_EEPSt13_Rb_tree_nodeIS8_EOT_@Base 0
 _ZNSt8_Rb_treeINSt7__cxx1112basic_stringIcSt11char_traitsIcESaIcEEESt4pairIKS5_S5_ESt10_Select1stIS8_ESt4lessIS5_ESaIS8_EE24_M_get_insert_unique_posERS7_@Base 0
 _ZNSt8_Rb_treeINSt7__cxx1112basic_stringIcSt11char_traitsIcESaIcEEESt4pairIKS5_S5_ESt10_Select1stIS8_ESt4lessIS5_ESaIS8_EE29_M_get_insert_hint_unique_posESt23_Rb_tree_const_iteratorIS8_ERS7_@Base 0
 _ZNSt8_Rb_treeINSt7__cxx1112basic_stringIcSt11char_traitsIcESaIcEEESt4pairIKS5_S5_ESt10_Select1stIS8_ESt4lessIS5_ESaIS8_EEC1ERKSE_@Base 0
 _ZNSt8_Rb_treeINSt7__cxx1112basic_stringIcSt11char_traitsIcESaIcEEESt4pairIKS5_S5_ESt10_Select1stIS8_ESt4lessIS5_ESaIS8_EEC2ERKSE_@Base 0
 _ZNSt8_Rb_treeINSt7__cxx1112basic_stringIcSt11char_traitsIcESaIcEEESt4pairIKS5_iESt10_Select1stIS8_ESt4lessIS5_ESaIS8_EE24_M_get_insert_unique_posERS7_@Base 0
 _ZNSt8_Rb_treeINSt7__cxx1112basic_stringIcSt11char_traitsIcESaIcEEESt4pairIKS5_iESt10_Select1stIS8_ESt4lessIS5_ESaIS8_EE29_M_get_insert_hint_unique_posESt23_Rb_tree_const_iteratorIS8_ERS7_@Base 0
 _ZNSt8_Rb_treeIiSt4pairIKiNSt7__cxx114listIN10GPTDisplay8ErrorMsgESaIS5_EEEESt10_Select1stIS8_ESt4lessIiESaIS8_EE24_M_get_insert_unique_posERS1_@Base 0
 _ZNSt8_Rb_treeIiSt4pairIKiNSt7__cxx114listIN10GPTDisplay8ErrorMsgESaIS5_EEEESt10_Select1stIS8_ESt4lessIiESaIS8_EE29_M_get_insert_hint_unique_posESt23_Rb_tree_const_iteratorIS8_ERS1_@Base 0
 _ZNSt8_Rb_treeIiSt4pairIKiSt3mapIiNSt7__cxx114listIN10GPTDisplay8ErrorMsgESaIS6_EEESt4lessIiESaIS0_IS1_S8_EEEESt10_Select1stISE_ESA_SaISE_EE24_M_get_insert_unique_posERS1_@Base 0
 _ZNSt8_Rb_treeIiSt4pairIKiSt3mapIiNSt7__cxx114listIN10GPTDisplay8ErrorMsgESaIS6_EEESt4lessIiESaIS0_IS1_S8_EEEESt10_Select1stISE_ESA_SaISE_EE29_M_get_insert_hint_unique_posESt23_Rb_tree_const_iteratorISE_ERS1_@Base 0
 _ZStplIcSt11char_traitsIcESaIcEENSt7__cxx1112basic_stringIT_T0_T1_EEOS8_PKS5_@Base 0
 _ZStplIcSt11char_traitsIcESaIcEENSt7__cxx1112basic_stringIT_T0_T1_EEOS8_S9_@Base 0
 _ZStplIcSt11char_traitsIcESaIcEENSt7__cxx1112basic_stringIT_T0_T1_EEPKS5_RKS8_@Base 0
 _ZStplIcSt11char_traitsIcESaIcEENSt7__cxx1112basic_stringIT_T0_T1_EERKS8_PKS5_@Base 0
 _ZTI11PortugolAST@Base 0
 _ZTI13PortugolLexer@Base 0
 _ZTI14PortugolParser@Base 0
 _ZTI18BasePortugolParser@Base 0
 _ZTI18PortugolTokenTypes@Base 0
 _ZTI18UnicodeCharScanner@Base 0
 _ZTI20SymbolTableException@Base 0
 _ZTI20UniqueErrorException@Base 0
 _ZTI24PortugolParserTokenTypes@Base 0
 _ZTI30MismatchedUnicodeCharException@Base 0
 _ZTIN5antlr11CharScannerE@Base 0
 _ZTIN5antlr11TokenStreamE@Base 0
 _ZTIN5antlr14ANTLRExceptionE@Base 0
 _ZTIN5antlr15LexerInputStateE@Base 0
 _ZTIN5antlr16ParserInputStateE@Base 0
 _ZTIN5antlr17SemanticExceptionE@Base 0
 _ZTIN5antlr19CharStreamExceptionE@Base 0
 _ZTIN5antlr20TokenStreamExceptionE@Base 0
 _ZTIN5antlr21CharStreamIOExceptionE@Base 0
 _ZTIN5antlr22TokenStreamIOExceptionE@Base 0
 _ZTIN5antlr31TokenStreamRecognitionExceptionE@Base 0
 _ZTIN5antlr3ASTE@Base 0
 _ZTIN5antlr7BaseASTE@Base 0
 _ZTIN5antlr9CommonASTE@Base 0
 _ZTS11PortugolAST@Base 0
 _ZTS13PortugolLexer@Base 0
 _ZTS14PortugolParser@Base 0
 _ZTS18BasePortugolParser@Base 0
 _ZTS18PortugolTokenTypes@Base 0
 _ZTS18UnicodeCharScanner@Base 0
 _ZTS20SymbolTableException@Base 0
 _ZTS20UniqueErrorException@Base 0
 _ZTS24PortugolParserTokenTypes@Base 0
 _ZTS30MismatchedUnicodeCharException@Base 0
 _ZTSN5antlr11CharScannerE@Base 0
 _ZTSN5antlr11TokenStreamE@Base 0
 _ZTSN5antlr14ANTLRExceptionE@Base 0
 _ZTSN5antlr15LexerInputStateE@Base 0
 _ZTSN5antlr16ParserInputStateE@Base 0
 _ZTSN5antlr17SemanticExceptionE@Base 0
 _ZTSN5antlr19CharStreamExceptionE@Base 0
 _ZTSN5antlr20TokenStreamExceptionE@Base 0
 _ZTSN5antlr21CharStreamIOExceptionE@Base 0
 _ZTSN5antlr22TokenStreamIOExceptionE@Base 0
 _ZTSN5antlr31TokenStreamRecognitionExceptionE@Base 0
 _ZTSN5antlr3ASTE@Base 0
 _ZTSN5antlr7BaseASTE@Base 0
 _ZTSN5antlr9CommonASTE@Base 0
 _ZTV11PortugolAST@Base 0
 _ZTV13PortugolLexer@Base 0
 _ZTV14PortugolParser@Base 0
 _ZTV18BasePortugolParser@Base 0
 _ZTV18UnicodeCharScanner@Base 0
 _ZTV30MismatchedUnicodeCharException@Base 0
 _ZTVN5antlr11CharScannerE@Base 0
 _ZTVN5antlr14ANTLRExceptionE@Base 0
 _ZTVN5antlr15LexerInputStateE@Base 0
 _ZTVN5antlr16ParserInputStateE@Base 0
 _ZTVN5antlr17SemanticExceptionE@Base 0
 _ZTVN5antlr20TokenStreamExceptionE@Base 0
 _ZTVN5antlr22TokenStreamIOExceptionE@Base 0
 _ZTVN5antlr31TokenStreamRecognitionExceptionE@Base 0
 _ZTVN5antlr7BaseASTE@Base 0
 _ZTVN5antlr9CommonASTE@Base 0
